target datalayout = "e-m:e-p270:32:32-p271:32:32-p272:64:64-i64:64-f80:128-n8:16:32:64-S128"
target triple = "x86_64-pc-linux-gnu"

@.str = private unnamed_addr constant [3 x i8] c"%d\00", align 1
@.str.1 = private unnamed_addr constant [15 x i8] c"%s%d%d %c %c%d\00", align 1
@.str.2 = private unnamed_addr constant [10 x i8] c"%s\0A%d\0A%d\0A\00", align 1

; Function Attrs: noinline nounwind uwtable
define dso_local i32 @main(i32 %0, i8** %1) #0 {
  %3 = alloca i32, align 4
  %4 = alloca i32, align 4
  %5 = alloca i8**, align 8
  %6 = alloca i32, align 4
  %7 = alloca [100 x i32], align 16
  %8 = alloca [100 x i32], align 16
  %9 = alloca [100 x i32], align 16
  %10 = alloca i32, align 4
  %11 = alloca i32, align 4
  %12 = alloca i32, align 4
  %13 = alloca [100 x i32], align 16
  %14 = alloca i32, align 4
  %15 = alloca [100 x [50 x i8]], align 16
  %16 = alloca [100 x i8], align 16
  %17 = alloca [100 x i8], align 16
  store i32 0, i32* %3, align 4
  store i32 %0, i32* %4, align 4
  store i8** %1, i8*** %5, align 8
  store i32 0, i32* %11, align 4
  store i32 0, i32* %14, align 4
  %18 = call i32 (i8*, ...) @__isoc99_scanf(i8* getelementptr inbounds ([3 x i8], [3 x i8]* @.str, i64 0, i64 0), i32* %6)
  store i32 0, i32* %10, align 4
  br label %19

19:                                               ; preds = %44, %2
  %20 = load i32, i32* %10, align 4
  %21 = load i32, i32* %6, align 4
  %22 = icmp slt i32 %20, %21
  br i1 %22, label %23, label %47

23:                                               ; preds = %19
  %24 = load i32, i32* %10, align 4
  %25 = sext i32 %24 to i64
  %26 = getelementptr inbounds [100 x [50 x i8]], [100 x [50 x i8]]* %15, i64 0, i64 %25
  %27 = getelementptr inbounds [50 x i8], [50 x i8]* %26, i64 0, i64 0
  %28 = load i32, i32* %10, align 4
  %29 = sext i32 %28 to i64
  %30 = getelementptr inbounds [100 x i32], [100 x i32]* %7, i64 0, i64 %29
  %31 = load i32, i32* %10, align 4
  %32 = sext i32 %31 to i64
  %33 = getelementptr inbounds [100 x i32], [100 x i32]* %8, i64 0, i64 %32
  %34 = load i32, i32* %10, align 4
  %35 = sext i32 %34 to i64
  %36 = getelementptr inbounds [100 x i8], [100 x i8]* %16, i64 0, i64 %35
  %37 = load i32, i32* %10, align 4
  %38 = sext i32 %37 to i64
  %39 = getelementptr inbounds [100 x i8], [100 x i8]* %17, i64 0, i64 %38
  %40 = load i32, i32* %10, align 4
  %41 = sext i32 %40 to i64
  %42 = getelementptr inbounds [100 x i32], [100 x i32]* %9, i64 0, i64 %41
  %43 = call i32 (i8*, ...) @__isoc99_scanf(i8* getelementptr inbounds ([15 x i8], [15 x i8]* @.str.1, i64 0, i64 0), i8* %27, i32* %30, i32* %33, i8* %36, i8* %39, i32* %42)
  br label %44

44:                                               ; preds = %23
  %45 = load i32, i32* %10, align 4
  %46 = add nsw i32 %45, 1
  store i32 %46, i32* %10, align 4
  br label %19

47:                                               ; preds = %19
  store i32 0, i32* %10, align 4
  br label %48

48:                                               ; preds = %157, %47
  %49 = load i32, i32* %10, align 4
  %50 = load i32, i32* %6, align 4
  %51 = icmp slt i32 %49, %50
  br i1 %51, label %52, label %160

52:                                               ; preds = %48
  %53 = load i32, i32* %10, align 4
  %54 = sext i32 %53 to i64
  %55 = getelementptr inbounds [100 x i32], [100 x i32]* %13, i64 0, i64 %54
  store i32 0, i32* %55, align 4
  %56 = load i32, i32* %10, align 4
  %57 = sext i32 %56 to i64
  %58 = getelementptr inbounds [100 x i32], [100 x i32]* %7, i64 0, i64 %57
  %59 = load i32, i32* %58, align 4
  %60 = icmp sgt i32 %59, 80
  br i1 %60, label %61, label %76

61:                                               ; preds = %52
  %62 = load i32, i32* %10, align 4
  %63 = sext i32 %62 to i64
  %64 = getelementptr inbounds [100 x i32], [100 x i32]* %9, i64 0, i64 %63
  %65 = load i32, i32* %64, align 4
  %66 = icmp sge i32 %65, 1
  br i1 %66, label %67, label %76

67:                                               ; preds = %61
  %68 = load i32, i32* %10, align 4
  %69 = sext i32 %68 to i64
  %70 = getelementptr inbounds [100 x i32], [100 x i32]* %13, i64 0, i64 %69
  %71 = load i32, i32* %70, align 4
  %72 = add nsw i32 %71, 8000
  %73 = load i32, i32* %10, align 4
  %74 = sext i32 %73 to i64
  %75 = getelementptr inbounds [100 x i32], [100 x i32]* %13, i64 0, i64 %74
  store i32 %72, i32* %75, align 4
  br label %76

76:                                               ; preds = %67, %61, %52
  %77 = load i32, i32* %10, align 4
  %78 = sext i32 %77 to i64
  %79 = getelementptr inbounds [100 x i32], [100 x i32]* %7, i64 0, i64 %78
  %80 = load i32, i32* %79, align 4
  %81 = icmp sgt i32 %80, 85
  br i1 %81, label %82, label %97

82:                                               ; preds = %76
  %83 = load i32, i32* %10, align 4
  %84 = sext i32 %83 to i64
  %85 = getelementptr inbounds [100 x i32], [100 x i32]* %8, i64 0, i64 %84
  %86 = load i32, i32* %85, align 4
  %87 = icmp sgt i32 %86, 80
  br i1 %87, label %88, label %97

88:                                               ; preds = %82
  %89 = load i32, i32* %10, align 4
  %90 = sext i32 %89 to i64
  %91 = getelementptr inbounds [100 x i32], [100 x i32]* %13, i64 0, i64 %90
  %92 = load i32, i32* %91, align 4
  %93 = add nsw i32 %92, 4000
  %94 = load i32, i32* %10, align 4
  %95 = sext i32 %94 to i64
  %96 = getelementptr inbounds [100 x i32], [100 x i32]* %13, i64 0, i64 %95
  store i32 %93, i32* %96, align 4
  br label %97

97:                                               ; preds = %88, %82, %76
  %98 = load i32, i32* %10, align 4
  %99 = sext i32 %98 to i64
  %100 = getelementptr inbounds [100 x i32], [100 x i32]* %7, i64 0, i64 %99
  %101 = load i32, i32* %100, align 4
  %102 = icmp sgt i32 %101, 90
  br i1 %102, label %103, label %112

103:                                              ; preds = %97
  %104 = load i32, i32* %10, align 4
  %105 = sext i32 %104 to i64
  %106 = getelementptr inbounds [100 x i32], [100 x i32]* %13, i64 0, i64 %105
  %107 = load i32, i32* %106, align 4
  %108 = add nsw i32 %107, 2000
  %109 = load i32, i32* %10, align 4
  %110 = sext i32 %109 to i64
  %111 = getelementptr inbounds [100 x i32], [100 x i32]* %13, i64 0, i64 %110
  store i32 %108, i32* %111, align 4
  br label %112

112:                                              ; preds = %103, %97
  %113 = load i32, i32* %10, align 4
  %114 = sext i32 %113 to i64
  %115 = getelementptr inbounds [100 x i32], [100 x i32]* %7, i64 0, i64 %114
  %116 = load i32, i32* %115, align 4
  %117 = icmp sgt i32 %116, 85
  br i1 %117, label %118, label %134

118:                                              ; preds = %112
  %119 = load i32, i32* %10, align 4
  %120 = sext i32 %119 to i64
  %121 = getelementptr inbounds [100 x i8], [100 x i8]* %17, i64 0, i64 %120
  %122 = load i8, i8* %121, align 1
  %123 = sext i8 %122 to i32
  %124 = icmp eq i32 %123, 89
  br i1 %124, label %125, label %134

125:                                              ; preds = %118
  %126 = load i32, i32* %10, align 4
  %127 = sext i32 %126 to i64
  %128 = getelementptr inbounds [100 x i32], [100 x i32]* %13, i64 0, i64 %127
  %129 = load i32, i32* %128, align 4
  %130 = add nsw i32 %129, 1000
  %131 = load i32, i32* %10, align 4
  %132 = sext i32 %131 to i64
  %133 = getelementptr inbounds [100 x i32], [100 x i32]* %13, i64 0, i64 %132
  store i32 %130, i32* %133, align 4
  br label %134

134:                                              ; preds = %125, %118, %112
  %135 = load i32, i32* %10, align 4
  %136 = sext i32 %135 to i64
  %137 = getelementptr inbounds [100 x i32], [100 x i32]* %8, i64 0, i64 %136
  %138 = load i32, i32* %137, align 4
  %139 = icmp sgt i32 %138, 80
  br i1 %139, label %140, label %156

140:                                              ; preds = %134
  %141 = load i32, i32* %10, align 4
  %142 = sext i32 %141 to i64
  %143 = getelementptr inbounds [100 x i8], [100 x i8]* %16, i64 0, i64 %142
  %144 = load i8, i8* %143, align 1
  %145 = sext i8 %144 to i32
  %146 = icmp eq i32 %145, 89
  br i1 %146, label %147, label %156

147:                                              ; preds = %140
  %148 = load i32, i32* %10, align 4
  %149 = sext i32 %148 to i64
  %150 = getelementptr inbounds [100 x i32], [100 x i32]* %13, i64 0, i64 %149
  %151 = load i32, i32* %150, align 4
  %152 = add nsw i32 %151, 850
  %153 = load i32, i32* %10, align 4
  %154 = sext i32 %153 to i64
  %155 = getelementptr inbounds [100 x i32], [100 x i32]* %13, i64 0, i64 %154
  store i32 %152, i32* %155, align 4
  br label %156

156:                                              ; preds = %147, %140, %134
  br label %157

157:                                              ; preds = %156
  %158 = load i32, i32* %10, align 4
  %159 = add nsw i32 %158, 1
  store i32 %159, i32* %10, align 4
  br label %48

160:                                              ; preds = %48
  store i32 0, i32* %11, align 4
  store i32 0, i32* %10, align 4
  br label %161

161:                                              ; preds = %172, %160
  %162 = load i32, i32* %10, align 4
  %163 = load i32, i32* %6, align 4
  %164 = icmp slt i32 %162, %163
  br i1 %164, label %165, label %175

165:                                              ; preds = %161
  %166 = load i32, i32* %11, align 4
  %167 = load i32, i32* %10, align 4
  %168 = sext i32 %167 to i64
  %169 = getelementptr inbounds [100 x i32], [100 x i32]* %13, i64 0, i64 %168
  %170 = load i32, i32* %169, align 4
  %171 = add nsw i32 %166, %170
  store i32 %171, i32* %11, align 4
  br label %172

172:                                              ; preds = %165
  %173 = load i32, i32* %10, align 4
  %174 = add nsw i32 %173, 1
  store i32 %174, i32* %10, align 4
  br label %161

175:                                              ; preds = %161
  store i32 0, i32* %10, align 4
  br label %176

176:                                              ; preds = %194, %175
  %177 = load i32, i32* %10, align 4
  %178 = load i32, i32* %6, align 4
  %179 = icmp slt i32 %177, %178
  br i1 %179, label %180, label %197

180:                                              ; preds = %176
  %181 = load i32, i32* %10, align 4
  %182 = sext i32 %181 to i64
  %183 = getelementptr inbounds [100 x i32], [100 x i32]* %13, i64 0, i64 %182
  %184 = load i32, i32* %183, align 4
  %185 = load i32, i32* %14, align 4
  %186 = icmp sgt i32 %184, %185
  br i1 %186, label %187, label %193

187:                                              ; preds = %180
  %188 = load i32, i32* %10, align 4
  %189 = sext i32 %188 to i64
  %190 = getelementptr inbounds [100 x i32], [100 x i32]* %13, i64 0, i64 %189
  %191 = load i32, i32* %190, align 4
  store i32 %191, i32* %14, align 4
  %192 = load i32, i32* %10, align 4
  store i32 %192, i32* %12, align 4
  br label %193

193:                                              ; preds = %187, %180
  br label %194

194:                                              ; preds = %193
  %195 = load i32, i32* %10, align 4
  %196 = add nsw i32 %195, 1
  store i32 %196, i32* %10, align 4
  br label %176

197:                                              ; preds = %176
  %198 = load i32, i32* %12, align 4
  %199 = sext i32 %198 to i64
  %200 = getelementptr inbounds [100 x [50 x i8]], [100 x [50 x i8]]* %15, i64 0, i64 %199
  %201 = getelementptr inbounds [50 x i8], [50 x i8]* %200, i64 0, i64 0
  %202 = load i32, i32* %14, align 4
  %203 = load i32, i32* %11, align 4
  %204 = call i32 (i8*, ...) @printf(i8* getelementptr inbounds ([10 x i8], [10 x i8]* @.str.2, i64 0, i64 0), i8* %201, i32 %202, i32 %203)
  ret i32 0
}