; Function Attrs: nofree nounwind sspstrong uwtable
define dso_local i32 @main(i32 %0, i8** nocapture readnone %1) local_unnamed_addr #0 {
  %3 = alloca i32, align 4
  %4 = alloca [100 x i32], align 16
  %5 = alloca [100 x i32], align 16
  %6 = alloca [100 x i32], align 16
  %7 = alloca [100 x i32], align 16
  %8 = alloca [100 x [50 x i8]], align 16
  %9 = alloca [100 x i8], align 16
  %10 = alloca [100 x i8], align 16
  %11 = bitcast i32* %3 to i8*
  call void @llvm.lifetime.start.p0i8(i64 4, i8* nonnull %11) #4
  %12 = bitcast [100 x i32]* %4 to i8*
  call void @llvm.lifetime.start.p0i8(i64 400, i8* nonnull %12) #4
  %13 = bitcast [100 x i32]* %5 to i8*
  call void @llvm.lifetime.start.p0i8(i64 400, i8* nonnull %13) #4
  %14 = bitcast [100 x i32]* %6 to i8*
  call void @llvm.lifetime.start.p0i8(i64 400, i8* nonnull %14) #4
  %15 = bitcast [100 x i32]* %7 to i8*
  call void @llvm.lifetime.start.p0i8(i64 400, i8* nonnull %15) #4
  %16 = getelementptr inbounds [100 x [50 x i8]], [100 x [50 x i8]]* %8, i64 0, i64 0, i64 0
  call void @llvm.lifetime.start.p0i8(i64 5000, i8* nonnull %16) #4
  %17 = getelementptr inbounds [100 x i8], [100 x i8]* %9, i64 0, i64 0
  call void @llvm.lifetime.start.p0i8(i64 100, i8* nonnull %17) #4
  %18 = getelementptr inbounds [100 x i8], [100 x i8]* %10, i64 0, i64 0
  call void @llvm.lifetime.start.p0i8(i64 100, i8* nonnull %18) #4
  %19 = call i32 (i8*, ...) @__isoc99_scanf(i8* getelementptr inbounds ([3 x i8], [3 x i8]* @.str, i64 0, i64 0), i32* nonnull %3)
  %20 = load i32, i32* %3, align 4, !tbaa !5
  %21 = icmp sgt i32 %20, 0
  br i1 %21, label %26, label %246

22:                                               ; preds = %26
  %23 = icmp sgt i32 %36, 0
  br i1 %23, label %24, label %246

24:                                               ; preds = %22
  %25 = zext i32 %36 to i64
  br label %127

26:                                               ; preds = %2, %26
  %27 = phi i64 [ %35, %26 ], [ 0, %2 ]
  %28 = getelementptr inbounds [100 x [50 x i8]], [100 x [50 x i8]]* %8, i64 0, i64 %27, i64 0
  %29 = getelementptr inbounds [100 x i32], [100 x i32]* %4, i64 0, i64 %27
  %30 = getelementptr inbounds [100 x i32], [100 x i32]* %5, i64 0, i64 %27
  %31 = getelementptr inbounds [100 x i8], [100 x i8]* %9, i64 0, i64 %27
  %32 = getelementptr inbounds [100 x i8], [100 x i8]* %10, i64 0, i64 %27
  %33 = getelementptr inbounds [100 x i32], [100 x i32]* %6, i64 0, i64 %27
  %34 = call i32 (i8*, ...) @__isoc99_scanf(i8* getelementptr inbounds ([15 x i8], [15 x i8]* @.str.1, i64 0, i64 0), i8* nonnull %28, i32* nonnull %29, i32* nonnull %30, i8* nonnull %31, i8* nonnull %32, i32* nonnull %33)
  %35 = add nuw nsw i64 %27, 1
  %36 = load i32, i32* %3, align 4, !tbaa !5
  %37 = sext i32 %36 to i64
  %38 = icmp slt i64 %35, %37
  br i1 %38, label %26, label %22, !llvm.loop !9

39:                                               ; preds = %169
  br i1 %23, label %40, label %246

40:                                               ; preds = %39
  %41 = zext i32 %36 to i64
  %42 = icmp ult i32 %36, 8
  br i1 %42, label %124, label %43

43:                                               ; preds = %40
  %44 = and i64 %25, 4294967288
  %45 = add nsw i64 %44, -8
  %46 = lshr exact i64 %45, 3
  %47 = add nuw nsw i64 %46, 1
  %48 = and i64 %47, 3
  %49 = icmp ult i64 %45, 24
  br i1 %49, label %95, label %50

50:                                               ; preds = %43
  %51 = and i64 %47, 4611686018427387900
  br label %52

52:                                               ; preds = %52, %50
  %53 = phi i64 [ 0, %50 ], [ %92, %52 ]
  %54 = phi <4 x i32> [ zeroinitializer, %50 ], [ %90, %52 ]
  %55 = phi <4 x i32> [ zeroinitializer, %50 ], [ %91, %52 ]
  %56 = phi i64 [ %51, %50 ], [ %93, %52 ]
  %57 = getelementptr inbounds [100 x i32], [100 x i32]* %7, i64 0, i64 %53
  %58 = bitcast i32* %57 to <4 x i32>*
  %59 = load <4 x i32>, <4 x i32>* %58, align 16, !tbaa !5
  %60 = getelementptr inbounds i32, i32* %57, i64 4
  %61 = bitcast i32* %60 to <4 x i32>*
  %62 = load <4 x i32>, <4 x i32>* %61, align 16, !tbaa !5
  %63 = add <4 x i32> %59, %54
  %64 = add <4 x i32> %62, %55
  %65 = or i64 %53, 8
  %66 = getelementptr inbounds [100 x i32], [100 x i32]* %7, i64 0, i64 %65
  %67 = bitcast i32* %66 to <4 x i32>*
  %68 = load <4 x i32>, <4 x i32>* %67, align 16, !tbaa !5
  %69 = getelementptr inbounds i32, i32* %66, i64 4
  %70 = bitcast i32* %69 to <4 x i32>*
  %71 = load <4 x i32>, <4 x i32>* %70, align 16, !tbaa !5
  %72 = add <4 x i32> %68, %63
  %73 = add <4 x i32> %71, %64
  %74 = or i64 %53, 16
  %75 = getelementptr inbounds [100 x i32], [100 x i32]* %7, i64 0, i64 %74
  %76 = bitcast i32* %75 to <4 x i32>*
  %77 = load <4 x i32>, <4 x i32>* %76, align 16, !tbaa !5
  %78 = getelementptr inbounds i32, i32* %75, i64 4
  %79 = bitcast i32* %78 to <4 x i32>*
  %80 = load <4 x i32>, <4 x i32>* %79, align 16, !tbaa !5
  %81 = add <4 x i32> %77, %72
  %82 = add <4 x i32> %80, %73
  %83 = or i64 %53, 24
  %84 = getelementptr inbounds [100 x i32], [100 x i32]* %7, i64 0, i64 %83
  %85 = bitcast i32* %84 to <4 x i32>*
  %86 = load <4 x i32>, <4 x i32>* %85, align 16, !tbaa !5
  %87 = getelementptr inbounds i32, i32* %84, i64 4
  %88 = bitcast i32* %87 to <4 x i32>*
  %89 = load <4 x i32>, <4 x i32>* %88, align 16, !tbaa !5
  %90 = add <4 x i32> %86, %81
  %91 = add <4 x i32> %89, %82
  %92 = add nuw i64 %53, 32
  %93 = add i64 %56, -4
  %94 = icmp eq i64 %93, 0
  br i1 %94, label %95, label %52, !llvm.loop !11

95:                                               ; preds = %52, %43
  %96 = phi <4 x i32> [ undef, %43 ], [ %90, %52 ]
  %97 = phi <4 x i32> [ undef, %43 ], [ %91, %52 ]
  %98 = phi i64 [ 0, %43 ], [ %92, %52 ]
  %99 = phi <4 x i32> [ zeroinitializer, %43 ], [ %90, %52 ]
  %100 = phi <4 x i32> [ zeroinitializer, %43 ], [ %91, %52 ]
  %101 = icmp eq i64 %48, 0
  br i1 %101, label %118, label %102

102:                                              ; preds = %95, %102
  %103 = phi i64 [ %115, %102 ], [ %98, %95 ]
  %104 = phi <4 x i32> [ %113, %102 ], [ %99, %95 ]
  %105 = phi <4 x i32> [ %114, %102 ], [ %100, %95 ]
  %106 = phi i64 [ %116, %102 ], [ %48, %95 ]
  %107 = getelementptr inbounds [100 x i32], [100 x i32]* %7, i64 0, i64 %103
  %108 = bitcast i32* %107 to <4 x i32>*
  %109 = load <4 x i32>, <4 x i32>* %108, align 16, !tbaa !5
  %110 = getelementptr inbounds i32, i32* %107, i64 4
  %111 = bitcast i32* %110 to <4 x i32>*
  %112 = load <4 x i32>, <4 x i32>* %111, align 16, !tbaa !5
  %113 = add <4 x i32> %109, %104
  %114 = add <4 x i32> %112, %105
  %115 = add nuw i64 %103, 8
  %116 = add i64 %106, -1
  %117 = icmp eq i64 %116, 0
  br i1 %117, label %118, label %102, !llvm.loop !13

118:                                              ; preds = %102, %95
  %119 = phi <4 x i32> [ %96, %95 ], [ %113, %102 ]
  %120 = phi <4 x i32> [ %97, %95 ], [ %114, %102 ]
  %121 = add <4 x i32> %120, %119
  %122 = call i32 @llvm.vector.reduce.add.v4i32(<4 x i32> %121)
  %123 = icmp eq i64 %44, %25
  br i1 %123, label %172, label %124

124:                                              ; preds = %40, %118
  %125 = phi i64 [ 0, %40 ], [ %44, %118 ]
  %126 = phi i32 [ 0, %40 ], [ %122, %118 ]
  br label %179

127:                                              ; preds = %24, %169
  %128 = phi i64 [ 0, %24 ], [ %170, %169 ]
  %129 = getelementptr inbounds [100 x i32], [100 x i32]* %7, i64 0, i64 %128
  store i32 0, i32* %129, align 4, !tbaa !5
  %130 = getelementptr inbounds [100 x i32], [100 x i32]* %4, i64 0, i64 %128
  %131 = load i32, i32* %130, align 4, !tbaa !5
  %132 = icmp sgt i32 %131, 80
  br i1 %132, label %133, label %158

133:                                              ; preds = %127
  %134 = getelementptr inbounds [100 x i32], [100 x i32]* %6, i64 0, i64 %128
  %135 = load i32, i32* %134, align 4, !tbaa !5
  %136 = icmp sgt i32 %135, 0
  br i1 %136, label %137, label %138

137:                                              ; preds = %133
  store i32 8000, i32* %129, align 4, !tbaa !5
  br label %138

138:                                              ; preds = %137, %133
  %139 = phi i32 [ 8000, %137 ], [ 0, %133 ]
  %140 = icmp sgt i32 %131, 85
  br i1 %140, label %141, label %158

141:                                              ; preds = %138
  %142 = getelementptr inbounds [100 x i32], [100 x i32]* %5, i64 0, i64 %128
  %143 = load i32, i32* %142, align 4, !tbaa !5
  %144 = icmp sgt i32 %143, 80
  %145 = add nuw nsw i32 %139, 4000
  %146 = select i1 %144, i32 %145, i32 %139
  %147 = icmp sgt i32 %131, 90
  %148 = add nuw nsw i32 %146, 2000
  %149 = select i1 %147, i32 %148, i32 %146
  %150 = or i1 %144, %147
  br i1 %150, label %151, label %152

151:                                              ; preds = %141
  store i32 %149, i32* %129, align 4, !tbaa !5
  br label %152

152:                                              ; preds = %141, %151
  %153 = getelementptr inbounds [100 x i8], [100 x i8]* %10, i64 0, i64 %128
  %154 = load i8, i8* %153, align 1, !tbaa !15
  %155 = icmp eq i8 %154, 89
  br i1 %155, label %156, label %158

156:                                              ; preds = %152
  %157 = add nuw nsw i32 %149, 1000
  store i32 %157, i32* %129, align 4, !tbaa !5
  br label %158

158:                                              ; preds = %138, %127, %156, %152
  %159 = phi i32 [ %139, %138 ], [ 0, %127 ], [ %157, %156 ], [ %149, %152 ]
  %160 = getelementptr inbounds [100 x i32], [100 x i32]* %5, i64 0, i64 %128
  %161 = load i32, i32* %160, align 4, !tbaa !5
  %162 = icmp sgt i32 %161, 80
  br i1 %162, label %163, label %169

163:                                              ; preds = %158
  %164 = getelementptr inbounds [100 x i8], [100 x i8]* %9, i64 0, i64 %128
  %165 = load i8, i8* %164, align 1, !tbaa !15
  %166 = icmp eq i8 %165, 89
  br i1 %166, label %167, label %169

167:                                              ; preds = %163
  %168 = add nuw nsw i32 %159, 850
  store i32 %168, i32* %129, align 4, !tbaa !5
  br label %169

169:                                              ; preds = %158, %163, %167
  %170 = add nuw nsw i64 %128, 1
  %171 = icmp eq i64 %170, %25
  br i1 %171, label %39, label %127, !llvm.loop !16

172:                                              ; preds = %179, %118
  %173 = phi i32 [ %122, %118 ], [ %184, %179 ]
  %174 = add nsw i64 %25, -1
  %175 = and i64 %25, 3
  %176 = icmp ult i64 %174, 3
  br i1 %176, label %222, label %177

177:                                              ; preds = %172
  %178 = and i64 %25, 4294967292
  br label %187

179:                                              ; preds = %124, %179
  %180 = phi i64 [ %185, %179 ], [ %125, %124 ]
  %181 = phi i32 [ %184, %179 ], [ %126, %124 ]
  %182 = getelementptr inbounds [100 x i32], [100 x i32]* %7, i64 0, i64 %180
  %183 = load i32, i32* %182, align 4, !tbaa !5
  %184 = add nsw i32 %183, %181
  %185 = add nuw nsw i64 %180, 1
  %186 = icmp eq i64 %185, %41
  br i1 %186, label %172, label %179, !llvm.loop !17

187:                                              ; preds = %187, %177
  %188 = phi i64 [ 0, %177 ], [ %219, %187 ]
  %189 = phi i32 [ 0, %177 ], [ %218, %187 ]
  %190 = phi i32 [ undef, %177 ], [ %217, %187 ]
  %191 = phi i64 [ %178, %177 ], [ %220, %187 ]
  %192 = getelementptr inbounds [100 x i32], [100 x i32]* %7, i64 0, i64 %188
  %193 = load i32, i32* %192, align 16, !tbaa !5
  %194 = icmp sgt i32 %193, %189
  %195 = trunc i64 %188 to i32
  %196 = select i1 %194, i32 %195, i32 %190
  %197 = select i1 %194, i32 %193, i32 %189
  %198 = or i64 %188, 1
  %199 = getelementptr inbounds [100 x i32], [100 x i32]* %7, i64 0, i64 %198
  %200 = load i32, i32* %199, align 4, !tbaa !5
  %201 = icmp sgt i32 %200, %197
  %202 = trunc i64 %198 to i32
  %203 = select i1 %201, i32 %202, i32 %196
  %204 = select i1 %201, i32 %200, i32 %197
  %205 = or i64 %188, 2
  %206 = getelementptr inbounds [100 x i32], [100 x i32]* %7, i64 0, i64 %205
  %207 = load i32, i32* %206, align 8, !tbaa !5
  %208 = icmp sgt i32 %207, %204
  %209 = trunc i64 %205 to i32
  %210 = select i1 %208, i32 %209, i32 %203
  %211 = select i1 %208, i32 %207, i32 %204
  %212 = or i64 %188, 3
  %213 = getelementptr inbounds [100 x i32], [100 x i32]* %7, i64 0, i64 %212
  %214 = load i32, i32* %213, align 4, !tbaa !5
  %215 = icmp sgt i32 %214, %211
  %216 = trunc i64 %212 to i32
  %217 = select i1 %215, i32 %216, i32 %210
  %218 = select i1 %215, i32 %214, i32 %211
  %219 = add nuw nsw i64 %188, 4
  %220 = add i64 %191, -4
  %221 = icmp eq i64 %220, 0
  br i1 %221, label %222, label %187, !llvm.loop !19

222:                                              ; preds = %187, %172
  %223 = phi i32 [ undef, %172 ], [ %218, %187 ]
  %224 = phi i64 [ 0, %172 ], [ %219, %187 ]
  %225 = phi i32 [ 0, %172 ], [ %218, %187 ]
  %226 = phi i32 [ undef, %172 ], [ %217, %187 ]
  %227 = icmp eq i64 %175, 0
  br i1 %227, label %242, label %228

228:                                              ; preds = %222, %228
  %229 = phi i64 [ %239, %228 ], [ %224, %222 ]
  %230 = phi i32 [ %238, %228 ], [ %225, %222 ]
  %231 = phi i32 [ %237, %228 ], [ %226, %222 ]
  %232 = phi i64 [ %240, %228 ], [ %175, %222 ]
  %233 = getelementptr inbounds [100 x i32], [100 x i32]* %7, i64 0, i64 %229
  %234 = load i32, i32* %233, align 4, !tbaa !5
  %235 = icmp sgt i32 %234, %230
  %236 = trunc i64 %229 to i32
  %237 = select i1 %235, i32 %236, i32 %231
  %238 = select i1 %235, i32 %234, i32 %230
  %239 = add nuw nsw i64 %229, 1
  %240 = add i64 %232, -1
  %241 = icmp eq i64 %240, 0
  br i1 %241, label %242, label %228, !llvm.loop !20

242:                                              ; preds = %228, %222
  %243 = phi i32 [ %226, %222 ], [ %237, %228 ]
  %244 = phi i32 [ %223, %222 ], [ %238, %228 ]
  %245 = sext i32 %243 to i64
  br label %246

246:                                              ; preds = %22, %2, %39, %242
  %247 = phi i32 [ %173, %242 ], [ 0, %39 ], [ 0, %2 ], [ 0, %22 ]
  %248 = phi i64 [ %245, %242 ], [ 0, %39 ], [ 0, %2 ], [ 0, %22 ]
  %249 = phi i32 [ %244, %242 ], [ 0, %39 ], [ 0, %2 ], [ 0, %22 ]
  %250 = getelementptr inbounds [100 x [50 x i8]], [100 x [50 x i8]]* %8, i64 0, i64 %248, i64 0
  %251 = call i32 (i8*, ...) @printf(i8* nonnull dereferenceable(1) getelementptr inbounds ([10 x i8], [10 x i8]* @.str.2, i64 0, i64 0), i8* nonnull %250, i32 %249, i32 %247)
  call void @llvm.lifetime.end.p0i8(i64 100, i8* nonnull %18) #4
  call void @llvm.lifetime.end.p0i8(i64 100, i8* nonnull %17) #4
  call void @llvm.lifetime.end.p0i8(i64 5000, i8* nonnull %16) #4
  call void @llvm.lifetime.end.p0i8(i64 400, i8* nonnull %15) #4
  call void @llvm.lifetime.end.p0i8(i64 400, i8* nonnull %14) #4
  call void @llvm.lifetime.end.p0i8(i64 400, i8* nonnull %13) #4
  call void @llvm.lifetime.end.p0i8(i64 400, i8* nonnull %12) #4
  call void @llvm.lifetime.end.p0i8(i64 4, i8* nonnull %11) #4
  ret i32 0
}